
;CodeVisionAVR C Compiler V3.12 Advanced
;(C) Copyright 1998-2014 Pavel Haiduc, HP InfoTech s.r.l.
;http://www.hpinfotech.com

;Build configuration    : Debug
;Chip type              : ATmega64
;Program type           : Application
;Clock frequency        : 16.000000 MHz
;Memory model           : Small
;Optimize for           : Size
;(s)printf features     : int, width
;(s)scanf features      : int, width
;External RAM size      : 0
;Data Stack size        : 1024 byte(s)
;Heap size              : 0 byte(s)
;Promote 'char' to 'int': Yes
;'char' is unsigned     : Yes
;8 bit enums            : Yes
;Global 'const' stored in FLASH: Yes
;Enhanced function parameter passing: Yes
;Enhanced core instructions: On
;Automatic register allocation for global variables: On
;Smart register allocation: On

	#define _MODEL_SMALL_

	#pragma AVRPART ADMIN PART_NAME ATmega64
	#pragma AVRPART MEMORY PROG_FLASH 65536
	#pragma AVRPART MEMORY EEPROM 2048
	#pragma AVRPART MEMORY INT_SRAM SIZE 4096
	#pragma AVRPART MEMORY INT_SRAM START_ADDR 0x100

	#define CALL_SUPPORTED 1

	.LISTMAC
	.EQU UDRE=0x5
	.EQU RXC=0x7
	.EQU USR=0xB
	.EQU UDR=0xC
	.EQU SPSR=0xE
	.EQU SPDR=0xF
	.EQU EERE=0x0
	.EQU EEWE=0x1
	.EQU EEMWE=0x2
	.EQU EECR=0x1C
	.EQU EEDR=0x1D
	.EQU EEARL=0x1E
	.EQU EEARH=0x1F
	.EQU WDTCR=0x21
	.EQU MCUCR=0x35
	.EQU SPL=0x3D
	.EQU SPH=0x3E
	.EQU SREG=0x3F
	.EQU XMCRA=0x6D
	.EQU XMCRB=0x6C

	.DEF R0X0=R0
	.DEF R0X1=R1
	.DEF R0X2=R2
	.DEF R0X3=R3
	.DEF R0X4=R4
	.DEF R0X5=R5
	.DEF R0X6=R6
	.DEF R0X7=R7
	.DEF R0X8=R8
	.DEF R0X9=R9
	.DEF R0XA=R10
	.DEF R0XB=R11
	.DEF R0XC=R12
	.DEF R0XD=R13
	.DEF R0XE=R14
	.DEF R0XF=R15
	.DEF R0X10=R16
	.DEF R0X11=R17
	.DEF R0X12=R18
	.DEF R0X13=R19
	.DEF R0X14=R20
	.DEF R0X15=R21
	.DEF R0X16=R22
	.DEF R0X17=R23
	.DEF R0X18=R24
	.DEF R0X19=R25
	.DEF R0X1A=R26
	.DEF R0X1B=R27
	.DEF R0X1C=R28
	.DEF R0X1D=R29
	.DEF R0X1E=R30
	.DEF R0X1F=R31

	.EQU __SRAM_START=0x0100
	.EQU __SRAM_END=0x10FF
	.EQU __DSTACK_SIZE=0x0400
	.EQU __HEAP_SIZE=0x0000
	.EQU __CLEAR_SRAM_SIZE=__SRAM_END-__SRAM_START+1

	.MACRO __CPD1N
	CPI  R30,LOW(@0)
	LDI  R26,HIGH(@0)
	CPC  R31,R26
	LDI  R26,BYTE3(@0)
	CPC  R22,R26
	LDI  R26,BYTE4(@0)
	CPC  R23,R26
	.ENDM

	.MACRO __CPD2N
	CPI  R26,LOW(@0)
	LDI  R30,HIGH(@0)
	CPC  R27,R30
	LDI  R30,BYTE3(@0)
	CPC  R24,R30
	LDI  R30,BYTE4(@0)
	CPC  R25,R30
	.ENDM

	.MACRO __CPWRR
	CP   R@0,R@2
	CPC  R@1,R@3
	.ENDM

	.MACRO __CPWRN
	CPI  R@0,LOW(@2)
	LDI  R30,HIGH(@2)
	CPC  R@1,R30
	.ENDM

	.MACRO __ADDB1MN
	SUBI R30,LOW(-@0-(@1))
	.ENDM

	.MACRO __ADDB2MN
	SUBI R26,LOW(-@0-(@1))
	.ENDM

	.MACRO __ADDW1MN
	SUBI R30,LOW(-@0-(@1))
	SBCI R31,HIGH(-@0-(@1))
	.ENDM

	.MACRO __ADDW2MN
	SUBI R26,LOW(-@0-(@1))
	SBCI R27,HIGH(-@0-(@1))
	.ENDM

	.MACRO __ADDW1FN
	SUBI R30,LOW(-2*@0-(@1))
	SBCI R31,HIGH(-2*@0-(@1))
	.ENDM

	.MACRO __ADDD1FN
	SUBI R30,LOW(-2*@0-(@1))
	SBCI R31,HIGH(-2*@0-(@1))
	SBCI R22,BYTE3(-2*@0-(@1))
	.ENDM

	.MACRO __ADDD1N
	SUBI R30,LOW(-@0)
	SBCI R31,HIGH(-@0)
	SBCI R22,BYTE3(-@0)
	SBCI R23,BYTE4(-@0)
	.ENDM

	.MACRO __ADDD2N
	SUBI R26,LOW(-@0)
	SBCI R27,HIGH(-@0)
	SBCI R24,BYTE3(-@0)
	SBCI R25,BYTE4(-@0)
	.ENDM

	.MACRO __SUBD1N
	SUBI R30,LOW(@0)
	SBCI R31,HIGH(@0)
	SBCI R22,BYTE3(@0)
	SBCI R23,BYTE4(@0)
	.ENDM

	.MACRO __SUBD2N
	SUBI R26,LOW(@0)
	SBCI R27,HIGH(@0)
	SBCI R24,BYTE3(@0)
	SBCI R25,BYTE4(@0)
	.ENDM

	.MACRO __ANDBMNN
	LDS  R30,@0+(@1)
	ANDI R30,LOW(@2)
	STS  @0+(@1),R30
	.ENDM

	.MACRO __ANDWMNN
	LDS  R30,@0+(@1)
	ANDI R30,LOW(@2)
	STS  @0+(@1),R30
	LDS  R30,@0+(@1)+1
	ANDI R30,HIGH(@2)
	STS  @0+(@1)+1,R30
	.ENDM

	.MACRO __ANDD1N
	ANDI R30,LOW(@0)
	ANDI R31,HIGH(@0)
	ANDI R22,BYTE3(@0)
	ANDI R23,BYTE4(@0)
	.ENDM

	.MACRO __ANDD2N
	ANDI R26,LOW(@0)
	ANDI R27,HIGH(@0)
	ANDI R24,BYTE3(@0)
	ANDI R25,BYTE4(@0)
	.ENDM

	.MACRO __ORBMNN
	LDS  R30,@0+(@1)
	ORI  R30,LOW(@2)
	STS  @0+(@1),R30
	.ENDM

	.MACRO __ORWMNN
	LDS  R30,@0+(@1)
	ORI  R30,LOW(@2)
	STS  @0+(@1),R30
	LDS  R30,@0+(@1)+1
	ORI  R30,HIGH(@2)
	STS  @0+(@1)+1,R30
	.ENDM

	.MACRO __ORD1N
	ORI  R30,LOW(@0)
	ORI  R31,HIGH(@0)
	ORI  R22,BYTE3(@0)
	ORI  R23,BYTE4(@0)
	.ENDM

	.MACRO __ORD2N
	ORI  R26,LOW(@0)
	ORI  R27,HIGH(@0)
	ORI  R24,BYTE3(@0)
	ORI  R25,BYTE4(@0)
	.ENDM

	.MACRO __DELAY_USB
	LDI  R24,LOW(@0)
__DELAY_USB_LOOP:
	DEC  R24
	BRNE __DELAY_USB_LOOP
	.ENDM

	.MACRO __DELAY_USW
	LDI  R24,LOW(@0)
	LDI  R25,HIGH(@0)
__DELAY_USW_LOOP:
	SBIW R24,1
	BRNE __DELAY_USW_LOOP
	.ENDM

	.MACRO __GETD1S
	LDD  R30,Y+@0
	LDD  R31,Y+@0+1
	LDD  R22,Y+@0+2
	LDD  R23,Y+@0+3
	.ENDM

	.MACRO __GETD2S
	LDD  R26,Y+@0
	LDD  R27,Y+@0+1
	LDD  R24,Y+@0+2
	LDD  R25,Y+@0+3
	.ENDM

	.MACRO __PUTD1S
	STD  Y+@0,R30
	STD  Y+@0+1,R31
	STD  Y+@0+2,R22
	STD  Y+@0+3,R23
	.ENDM

	.MACRO __PUTD2S
	STD  Y+@0,R26
	STD  Y+@0+1,R27
	STD  Y+@0+2,R24
	STD  Y+@0+3,R25
	.ENDM

	.MACRO __PUTDZ2
	STD  Z+@0,R26
	STD  Z+@0+1,R27
	STD  Z+@0+2,R24
	STD  Z+@0+3,R25
	.ENDM

	.MACRO __CLRD1S
	STD  Y+@0,R30
	STD  Y+@0+1,R30
	STD  Y+@0+2,R30
	STD  Y+@0+3,R30
	.ENDM

	.MACRO __POINTB1MN
	LDI  R30,LOW(@0+(@1))
	.ENDM

	.MACRO __POINTW1MN
	LDI  R30,LOW(@0+(@1))
	LDI  R31,HIGH(@0+(@1))
	.ENDM

	.MACRO __POINTD1M
	LDI  R30,LOW(@0)
	LDI  R31,HIGH(@0)
	LDI  R22,BYTE3(@0)
	LDI  R23,BYTE4(@0)
	.ENDM

	.MACRO __POINTW1FN
	LDI  R30,LOW(2*@0+(@1))
	LDI  R31,HIGH(2*@0+(@1))
	.ENDM

	.MACRO __POINTD1FN
	LDI  R30,LOW(2*@0+(@1))
	LDI  R31,HIGH(2*@0+(@1))
	LDI  R22,BYTE3(2*@0+(@1))
	LDI  R23,BYTE4(2*@0+(@1))
	.ENDM

	.MACRO __POINTB2MN
	LDI  R26,LOW(@0+(@1))
	.ENDM

	.MACRO __POINTW2MN
	LDI  R26,LOW(@0+(@1))
	LDI  R27,HIGH(@0+(@1))
	.ENDM

	.MACRO __POINTW2FN
	LDI  R26,LOW(2*@0+(@1))
	LDI  R27,HIGH(2*@0+(@1))
	.ENDM

	.MACRO __POINTD2FN
	LDI  R26,LOW(2*@0+(@1))
	LDI  R27,HIGH(2*@0+(@1))
	LDI  R24,BYTE3(2*@0+(@1))
	LDI  R25,BYTE4(2*@0+(@1))
	.ENDM

	.MACRO __POINTBRM
	LDI  R@0,LOW(@1)
	.ENDM

	.MACRO __POINTWRM
	LDI  R@0,LOW(@2)
	LDI  R@1,HIGH(@2)
	.ENDM

	.MACRO __POINTBRMN
	LDI  R@0,LOW(@1+(@2))
	.ENDM

	.MACRO __POINTWRMN
	LDI  R@0,LOW(@2+(@3))
	LDI  R@1,HIGH(@2+(@3))
	.ENDM

	.MACRO __POINTWRFN
	LDI  R@0,LOW(@2*2+(@3))
	LDI  R@1,HIGH(@2*2+(@3))
	.ENDM

	.MACRO __GETD1N
	LDI  R30,LOW(@0)
	LDI  R31,HIGH(@0)
	LDI  R22,BYTE3(@0)
	LDI  R23,BYTE4(@0)
	.ENDM

	.MACRO __GETD2N
	LDI  R26,LOW(@0)
	LDI  R27,HIGH(@0)
	LDI  R24,BYTE3(@0)
	LDI  R25,BYTE4(@0)
	.ENDM

	.MACRO __GETB1MN
	LDS  R30,@0+(@1)
	.ENDM

	.MACRO __GETB1HMN
	LDS  R31,@0+(@1)
	.ENDM

	.MACRO __GETW1MN
	LDS  R30,@0+(@1)
	LDS  R31,@0+(@1)+1
	.ENDM

	.MACRO __GETD1MN
	LDS  R30,@0+(@1)
	LDS  R31,@0+(@1)+1
	LDS  R22,@0+(@1)+2
	LDS  R23,@0+(@1)+3
	.ENDM

	.MACRO __GETBRMN
	LDS  R@0,@1+(@2)
	.ENDM

	.MACRO __GETWRMN
	LDS  R@0,@2+(@3)
	LDS  R@1,@2+(@3)+1
	.ENDM

	.MACRO __GETWRZ
	LDD  R@0,Z+@2
	LDD  R@1,Z+@2+1
	.ENDM

	.MACRO __GETD2Z
	LDD  R26,Z+@0
	LDD  R27,Z+@0+1
	LDD  R24,Z+@0+2
	LDD  R25,Z+@0+3
	.ENDM

	.MACRO __GETB2MN
	LDS  R26,@0+(@1)
	.ENDM

	.MACRO __GETW2MN
	LDS  R26,@0+(@1)
	LDS  R27,@0+(@1)+1
	.ENDM

	.MACRO __GETD2MN
	LDS  R26,@0+(@1)
	LDS  R27,@0+(@1)+1
	LDS  R24,@0+(@1)+2
	LDS  R25,@0+(@1)+3
	.ENDM

	.MACRO __PUTB1MN
	STS  @0+(@1),R30
	.ENDM

	.MACRO __PUTW1MN
	STS  @0+(@1),R30
	STS  @0+(@1)+1,R31
	.ENDM

	.MACRO __PUTD1MN
	STS  @0+(@1),R30
	STS  @0+(@1)+1,R31
	STS  @0+(@1)+2,R22
	STS  @0+(@1)+3,R23
	.ENDM

	.MACRO __PUTB1EN
	LDI  R26,LOW(@0+(@1))
	LDI  R27,HIGH(@0+(@1))
	CALL __EEPROMWRB
	.ENDM

	.MACRO __PUTW1EN
	LDI  R26,LOW(@0+(@1))
	LDI  R27,HIGH(@0+(@1))
	CALL __EEPROMWRW
	.ENDM

	.MACRO __PUTD1EN
	LDI  R26,LOW(@0+(@1))
	LDI  R27,HIGH(@0+(@1))
	CALL __EEPROMWRD
	.ENDM

	.MACRO __PUTBR0MN
	STS  @0+(@1),R0
	.ENDM

	.MACRO __PUTBMRN
	STS  @0+(@1),R@2
	.ENDM

	.MACRO __PUTWMRN
	STS  @0+(@1),R@2
	STS  @0+(@1)+1,R@3
	.ENDM

	.MACRO __PUTBZR
	STD  Z+@1,R@0
	.ENDM

	.MACRO __PUTWZR
	STD  Z+@2,R@0
	STD  Z+@2+1,R@1
	.ENDM

	.MACRO __GETW1R
	MOV  R30,R@0
	MOV  R31,R@1
	.ENDM

	.MACRO __GETW2R
	MOV  R26,R@0
	MOV  R27,R@1
	.ENDM

	.MACRO __GETWRN
	LDI  R@0,LOW(@2)
	LDI  R@1,HIGH(@2)
	.ENDM

	.MACRO __PUTW1R
	MOV  R@0,R30
	MOV  R@1,R31
	.ENDM

	.MACRO __PUTW2R
	MOV  R@0,R26
	MOV  R@1,R27
	.ENDM

	.MACRO __ADDWRN
	SUBI R@0,LOW(-@2)
	SBCI R@1,HIGH(-@2)
	.ENDM

	.MACRO __ADDWRR
	ADD  R@0,R@2
	ADC  R@1,R@3
	.ENDM

	.MACRO __SUBWRN
	SUBI R@0,LOW(@2)
	SBCI R@1,HIGH(@2)
	.ENDM

	.MACRO __SUBWRR
	SUB  R@0,R@2
	SBC  R@1,R@3
	.ENDM

	.MACRO __ANDWRN
	ANDI R@0,LOW(@2)
	ANDI R@1,HIGH(@2)
	.ENDM

	.MACRO __ANDWRR
	AND  R@0,R@2
	AND  R@1,R@3
	.ENDM

	.MACRO __ORWRN
	ORI  R@0,LOW(@2)
	ORI  R@1,HIGH(@2)
	.ENDM

	.MACRO __ORWRR
	OR   R@0,R@2
	OR   R@1,R@3
	.ENDM

	.MACRO __EORWRR
	EOR  R@0,R@2
	EOR  R@1,R@3
	.ENDM

	.MACRO __GETWRS
	LDD  R@0,Y+@2
	LDD  R@1,Y+@2+1
	.ENDM

	.MACRO __PUTBSR
	STD  Y+@1,R@0
	.ENDM

	.MACRO __PUTWSR
	STD  Y+@2,R@0
	STD  Y+@2+1,R@1
	.ENDM

	.MACRO __MOVEWRR
	MOV  R@0,R@2
	MOV  R@1,R@3
	.ENDM

	.MACRO __INWR
	IN   R@0,@2
	IN   R@1,@2+1
	.ENDM

	.MACRO __OUTWR
	OUT  @2+1,R@1
	OUT  @2,R@0
	.ENDM

	.MACRO __CALL1MN
	LDS  R30,@0+(@1)
	LDS  R31,@0+(@1)+1
	ICALL
	.ENDM

	.MACRO __CALL1FN
	LDI  R30,LOW(2*@0+(@1))
	LDI  R31,HIGH(2*@0+(@1))
	CALL __GETW1PF
	ICALL
	.ENDM

	.MACRO __CALL2EN
	PUSH R26
	PUSH R27
	LDI  R26,LOW(@0+(@1))
	LDI  R27,HIGH(@0+(@1))
	CALL __EEPROMRDW
	POP  R27
	POP  R26
	ICALL
	.ENDM

	.MACRO __CALL2EX
	SUBI R26,LOW(-@0)
	SBCI R27,HIGH(-@0)
	CALL __EEPROMRDD
	ICALL
	.ENDM

	.MACRO __GETW1STACK
	IN   R30,SPL
	IN   R31,SPH
	ADIW R30,@0+1
	LD   R0,Z+
	LD   R31,Z
	MOV  R30,R0
	.ENDM

	.MACRO __GETD1STACK
	IN   R30,SPL
	IN   R31,SPH
	ADIW R30,@0+1
	LD   R0,Z+
	LD   R1,Z+
	LD   R22,Z
	MOVW R30,R0
	.ENDM

	.MACRO __NBST
	BST  R@0,@1
	IN   R30,SREG
	LDI  R31,0x40
	EOR  R30,R31
	OUT  SREG,R30
	.ENDM


	.MACRO __PUTB1SN
	LDD  R26,Y+@0
	LDD  R27,Y+@0+1
	SUBI R26,LOW(-@1)
	SBCI R27,HIGH(-@1)
	ST   X,R30
	.ENDM

	.MACRO __PUTW1SN
	LDD  R26,Y+@0
	LDD  R27,Y+@0+1
	SUBI R26,LOW(-@1)
	SBCI R27,HIGH(-@1)
	ST   X+,R30
	ST   X,R31
	.ENDM

	.MACRO __PUTD1SN
	LDD  R26,Y+@0
	LDD  R27,Y+@0+1
	SUBI R26,LOW(-@1)
	SBCI R27,HIGH(-@1)
	CALL __PUTDP1
	.ENDM

	.MACRO __PUTB1SNS
	LDD  R26,Y+@0
	LDD  R27,Y+@0+1
	ADIW R26,@1
	ST   X,R30
	.ENDM

	.MACRO __PUTW1SNS
	LDD  R26,Y+@0
	LDD  R27,Y+@0+1
	ADIW R26,@1
	ST   X+,R30
	ST   X,R31
	.ENDM

	.MACRO __PUTD1SNS
	LDD  R26,Y+@0
	LDD  R27,Y+@0+1
	ADIW R26,@1
	CALL __PUTDP1
	.ENDM

	.MACRO __PUTB1PMN
	LDS  R26,@0
	LDS  R27,@0+1
	SUBI R26,LOW(-@1)
	SBCI R27,HIGH(-@1)
	ST   X,R30
	.ENDM

	.MACRO __PUTW1PMN
	LDS  R26,@0
	LDS  R27,@0+1
	SUBI R26,LOW(-@1)
	SBCI R27,HIGH(-@1)
	ST   X+,R30
	ST   X,R31
	.ENDM

	.MACRO __PUTD1PMN
	LDS  R26,@0
	LDS  R27,@0+1
	SUBI R26,LOW(-@1)
	SBCI R27,HIGH(-@1)
	CALL __PUTDP1
	.ENDM

	.MACRO __PUTB1PMNS
	LDS  R26,@0
	LDS  R27,@0+1
	ADIW R26,@1
	ST   X,R30
	.ENDM

	.MACRO __PUTW1PMNS
	LDS  R26,@0
	LDS  R27,@0+1
	ADIW R26,@1
	ST   X+,R30
	ST   X,R31
	.ENDM

	.MACRO __PUTD1PMNS
	LDS  R26,@0
	LDS  R27,@0+1
	ADIW R26,@1
	CALL __PUTDP1
	.ENDM

	.MACRO __PUTB1RN
	MOVW R26,R@0
	SUBI R26,LOW(-@1)
	SBCI R27,HIGH(-@1)
	ST   X,R30
	.ENDM

	.MACRO __PUTW1RN
	MOVW R26,R@0
	SUBI R26,LOW(-@1)
	SBCI R27,HIGH(-@1)
	ST   X+,R30
	ST   X,R31
	.ENDM

	.MACRO __PUTD1RN
	MOVW R26,R@0
	SUBI R26,LOW(-@1)
	SBCI R27,HIGH(-@1)
	CALL __PUTDP1
	.ENDM

	.MACRO __PUTB1RNS
	MOVW R26,R@0
	ADIW R26,@1
	ST   X,R30
	.ENDM

	.MACRO __PUTW1RNS
	MOVW R26,R@0
	ADIW R26,@1
	ST   X+,R30
	ST   X,R31
	.ENDM

	.MACRO __PUTD1RNS
	MOVW R26,R@0
	ADIW R26,@1
	CALL __PUTDP1
	.ENDM

	.MACRO __PUTB1RON
	MOV  R26,R@0
	MOV  R27,R@1
	SUBI R26,LOW(-@2)
	SBCI R27,HIGH(-@2)
	ST   X,R30
	.ENDM

	.MACRO __PUTW1RON
	MOV  R26,R@0
	MOV  R27,R@1
	SUBI R26,LOW(-@2)
	SBCI R27,HIGH(-@2)
	ST   X+,R30
	ST   X,R31
	.ENDM

	.MACRO __PUTD1RON
	MOV  R26,R@0
	MOV  R27,R@1
	SUBI R26,LOW(-@2)
	SBCI R27,HIGH(-@2)
	CALL __PUTDP1
	.ENDM

	.MACRO __PUTB1RONS
	MOV  R26,R@0
	MOV  R27,R@1
	ADIW R26,@2
	ST   X,R30
	.ENDM

	.MACRO __PUTW1RONS
	MOV  R26,R@0
	MOV  R27,R@1
	ADIW R26,@2
	ST   X+,R30
	ST   X,R31
	.ENDM

	.MACRO __PUTD1RONS
	MOV  R26,R@0
	MOV  R27,R@1
	ADIW R26,@2
	CALL __PUTDP1
	.ENDM


	.MACRO __GETB1SX
	MOVW R30,R28
	SUBI R30,LOW(-@0)
	SBCI R31,HIGH(-@0)
	LD   R30,Z
	.ENDM

	.MACRO __GETB1HSX
	MOVW R30,R28
	SUBI R30,LOW(-@0)
	SBCI R31,HIGH(-@0)
	LD   R31,Z
	.ENDM

	.MACRO __GETW1SX
	MOVW R30,R28
	SUBI R30,LOW(-@0)
	SBCI R31,HIGH(-@0)
	LD   R0,Z+
	LD   R31,Z
	MOV  R30,R0
	.ENDM

	.MACRO __GETD1SX
	MOVW R30,R28
	SUBI R30,LOW(-@0)
	SBCI R31,HIGH(-@0)
	LD   R0,Z+
	LD   R1,Z+
	LD   R22,Z+
	LD   R23,Z
	MOVW R30,R0
	.ENDM

	.MACRO __GETB2SX
	MOVW R26,R28
	SUBI R26,LOW(-@0)
	SBCI R27,HIGH(-@0)
	LD   R26,X
	.ENDM

	.MACRO __GETW2SX
	MOVW R26,R28
	SUBI R26,LOW(-@0)
	SBCI R27,HIGH(-@0)
	LD   R0,X+
	LD   R27,X
	MOV  R26,R0
	.ENDM

	.MACRO __GETD2SX
	MOVW R26,R28
	SUBI R26,LOW(-@0)
	SBCI R27,HIGH(-@0)
	LD   R0,X+
	LD   R1,X+
	LD   R24,X+
	LD   R25,X
	MOVW R26,R0
	.ENDM

	.MACRO __GETBRSX
	MOVW R30,R28
	SUBI R30,LOW(-@1)
	SBCI R31,HIGH(-@1)
	LD   R@0,Z
	.ENDM

	.MACRO __GETWRSX
	MOVW R30,R28
	SUBI R30,LOW(-@2)
	SBCI R31,HIGH(-@2)
	LD   R@0,Z+
	LD   R@1,Z
	.ENDM

	.MACRO __GETBRSX2
	MOVW R26,R28
	SUBI R26,LOW(-@1)
	SBCI R27,HIGH(-@1)
	LD   R@0,X
	.ENDM

	.MACRO __GETWRSX2
	MOVW R26,R28
	SUBI R26,LOW(-@2)
	SBCI R27,HIGH(-@2)
	LD   R@0,X+
	LD   R@1,X
	.ENDM

	.MACRO __LSLW8SX
	MOVW R30,R28
	SUBI R30,LOW(-@0)
	SBCI R31,HIGH(-@0)
	LD   R31,Z
	CLR  R30
	.ENDM

	.MACRO __PUTB1SX
	MOVW R26,R28
	SUBI R26,LOW(-@0)
	SBCI R27,HIGH(-@0)
	ST   X,R30
	.ENDM

	.MACRO __PUTW1SX
	MOVW R26,R28
	SUBI R26,LOW(-@0)
	SBCI R27,HIGH(-@0)
	ST   X+,R30
	ST   X,R31
	.ENDM

	.MACRO __PUTD1SX
	MOVW R26,R28
	SUBI R26,LOW(-@0)
	SBCI R27,HIGH(-@0)
	ST   X+,R30
	ST   X+,R31
	ST   X+,R22
	ST   X,R23
	.ENDM

	.MACRO __CLRW1SX
	MOVW R26,R28
	SUBI R26,LOW(-@0)
	SBCI R27,HIGH(-@0)
	ST   X+,R30
	ST   X,R30
	.ENDM

	.MACRO __CLRD1SX
	MOVW R26,R28
	SUBI R26,LOW(-@0)
	SBCI R27,HIGH(-@0)
	ST   X+,R30
	ST   X+,R30
	ST   X+,R30
	ST   X,R30
	.ENDM

	.MACRO __PUTB2SX
	MOVW R30,R28
	SUBI R30,LOW(-@0)
	SBCI R31,HIGH(-@0)
	ST   Z,R26
	.ENDM

	.MACRO __PUTW2SX
	MOVW R30,R28
	SUBI R30,LOW(-@0)
	SBCI R31,HIGH(-@0)
	ST   Z+,R26
	ST   Z,R27
	.ENDM

	.MACRO __PUTD2SX
	MOVW R30,R28
	SUBI R30,LOW(-@0)
	SBCI R31,HIGH(-@0)
	ST   Z+,R26
	ST   Z+,R27
	ST   Z+,R24
	ST   Z,R25
	.ENDM

	.MACRO __PUTBSRX
	MOVW R30,R28
	SUBI R30,LOW(-@1)
	SBCI R31,HIGH(-@1)
	ST   Z,R@0
	.ENDM

	.MACRO __PUTWSRX
	MOVW R30,R28
	SUBI R30,LOW(-@2)
	SBCI R31,HIGH(-@2)
	ST   Z+,R@0
	ST   Z,R@1
	.ENDM

	.MACRO __PUTB1SNX
	MOVW R26,R28
	SUBI R26,LOW(-@0)
	SBCI R27,HIGH(-@0)
	LD   R0,X+
	LD   R27,X
	MOV  R26,R0
	SUBI R26,LOW(-@1)
	SBCI R27,HIGH(-@1)
	ST   X,R30
	.ENDM

	.MACRO __PUTW1SNX
	MOVW R26,R28
	SUBI R26,LOW(-@0)
	SBCI R27,HIGH(-@0)
	LD   R0,X+
	LD   R27,X
	MOV  R26,R0
	SUBI R26,LOW(-@1)
	SBCI R27,HIGH(-@1)
	ST   X+,R30
	ST   X,R31
	.ENDM

	.MACRO __PUTD1SNX
	MOVW R26,R28
	SUBI R26,LOW(-@0)
	SBCI R27,HIGH(-@0)
	LD   R0,X+
	LD   R27,X
	MOV  R26,R0
	SUBI R26,LOW(-@1)
	SBCI R27,HIGH(-@1)
	ST   X+,R30
	ST   X+,R31
	ST   X+,R22
	ST   X,R23
	.ENDM

	.MACRO __MULBRR
	MULS R@0,R@1
	MOVW R30,R0
	.ENDM

	.MACRO __MULBRRU
	MUL  R@0,R@1
	MOVW R30,R0
	.ENDM

	.MACRO __MULBRR0
	MULS R@0,R@1
	.ENDM

	.MACRO __MULBRRU0
	MUL  R@0,R@1
	.ENDM

	.MACRO __MULBNWRU
	LDI  R26,@2
	MUL  R26,R@0
	MOVW R30,R0
	MUL  R26,R@1
	ADD  R31,R0
	.ENDM

;NAME DEFINITIONS FOR GLOBAL VARIABLES ALLOCATED TO REGISTERS
	.DEF _red_timer=R4
	.DEF _red_timer_msb=R5
	.DEF _green_timer=R6
	.DEF _green_timer_msb=R7
	.DEF _i=R8
	.DEF _i_msb=R9
	.DEF _input=R10
	.DEF _input_msb=R11
	.DEF _delay_time=R12
	.DEF _delay_time_msb=R13

	.CSEG
	.ORG 0x00

;START OF CODE MARKER
__START_OF_CODE:

;INTERRUPT VECTORS
	JMP  __RESET
	JMP  _ext_int0_isr
	JMP  _ext_int1_isr
	JMP  0x00
	JMP  0x00
	JMP  0x00
	JMP  0x00
	JMP  0x00
	JMP  0x00
	JMP  0x00
	JMP  0x00
	JMP  0x00
	JMP  0x00
	JMP  0x00
	JMP  0x00
	JMP  0x00
	JMP  0x00
	JMP  0x00
	JMP  0x00
	JMP  0x00
	JMP  0x00
	JMP  0x00
	JMP  0x00
	JMP  0x00
	JMP  0x00
	JMP  0x00
	JMP  0x00
	JMP  0x00
	JMP  0x00
	JMP  0x00
	JMP  0x00
	JMP  0x00
	JMP  0x00
	JMP  0x00
	JMP  0x00

_tbl10_G101:
	.DB  0x10,0x27,0xE8,0x3,0x64,0x0,0xA,0x0
	.DB  0x1,0x0
_tbl16_G101:
	.DB  0x0,0x10,0x0,0x1,0x10,0x0,0x1,0x0

;GLOBAL REGISTER VARIABLES INITIALIZATION
__REG_VARS:
	.DB  0x5,0x0,0x5,0x0
	.DB  0x0,0x0,0x0,0x0
	.DB  0x64,0x0

_0x3:
	.DB  0xFE,0x4F,0x12,0x30,0x68,0x24,0x4,0x71
	.DB  0x0,0x20
_0x0:
	.DB  0x43,0x6F,0x6E,0x74,0x72,0x6F,0x6C,0x20
	.DB  0x42,0x6F,0x78,0x0,0x73,0x65,0x74,0x20
	.DB  0x20,0x20,0x20,0x20,0x20,0x20,0x20,0x20
	.DB  0x20,0x20,0x20,0x20,0x20,0x73,0x65,0x74
	.DB  0x0,0x67,0x72,0x65,0x65,0x6E,0x20,0x20
	.DB  0x20,0x20,0x20,0x20,0x20,0x20,0x20,0x20
	.DB  0x20,0x20,0x72,0x65,0x64,0x0,0x45,0x6E
	.DB  0x74,0x65,0x72,0x20,0x61,0x20,0x6E,0x75
	.DB  0x6D,0x62,0x65,0x72,0x28,0x31,0x2D,0x39
	.DB  0x29,0x0,0x66,0x6F,0x72,0x20,0x72,0x65
	.DB  0x64,0x20,0x74,0x69,0x6D,0x65,0x72,0x0
	.DB  0x72,0x65,0x64,0x20,0x74,0x69,0x6D,0x65
	.DB  0x72,0x20,0x69,0x73,0x20,0x73,0x65,0x74
	.DB  0x0,0x66,0x6F,0x72,0x20,0x25,0x75,0x73
	.DB  0x0,0x66,0x6F,0x72,0x20,0x67,0x72,0x65
	.DB  0x65,0x6E,0x20,0x74,0x69,0x6D,0x65,0x72
	.DB  0x0,0x67,0x72,0x65,0x65,0x6E,0x20,0x74
	.DB  0x69,0x6D,0x65,0x72,0x20,0x69,0x73,0x20
	.DB  0x73,0x65,0x74,0x0
_0x2000060:
	.DB  0x1
_0x2000000:
	.DB  0x2D,0x4E,0x41,0x4E,0x0,0x49,0x4E,0x46
	.DB  0x0
_0x2040003:
	.DB  0x80,0xC0

__GLOBAL_INI_TBL:
	.DW  0x0A
	.DW  0x04
	.DW  __REG_VARS*2

	.DW  0x0A
	.DW  _digit
	.DW  _0x3*2

	.DW  0x11
	.DW  _0x35
	.DW  _0x0*2+88

	.DW  0x13
	.DW  _0x3A
	.DW  _0x0*2+129

	.DW  0x01
	.DW  __seed_G100
	.DW  _0x2000060*2

	.DW  0x02
	.DW  __base_y_G102
	.DW  _0x2040003*2

_0xFFFFFFFF:
	.DW  0

#define __GLOBAL_INI_TBL_PRESENT 1

__RESET:
	CLI
	CLR  R30
	OUT  EECR,R30

;INTERRUPT VECTORS ARE PLACED
;AT THE START OF FLASH
	LDI  R31,1
	OUT  MCUCR,R31
	OUT  MCUCR,R30
	STS  XMCRB,R30

;CLEAR R2-R14
	LDI  R24,(14-2)+1
	LDI  R26,2
	CLR  R27
__CLEAR_REG:
	ST   X+,R30
	DEC  R24
	BRNE __CLEAR_REG

;CLEAR SRAM
	LDI  R24,LOW(__CLEAR_SRAM_SIZE)
	LDI  R25,HIGH(__CLEAR_SRAM_SIZE)
	LDI  R26,LOW(__SRAM_START)
	LDI  R27,HIGH(__SRAM_START)
__CLEAR_SRAM:
	ST   X+,R30
	SBIW R24,1
	BRNE __CLEAR_SRAM

;GLOBAL VARIABLES INITIALIZATION
	LDI  R30,LOW(__GLOBAL_INI_TBL*2)
	LDI  R31,HIGH(__GLOBAL_INI_TBL*2)
__GLOBAL_INI_NEXT:
	LPM  R24,Z+
	LPM  R25,Z+
	SBIW R24,0
	BREQ __GLOBAL_INI_END
	LPM  R26,Z+
	LPM  R27,Z+
	LPM  R0,Z+
	LPM  R1,Z+
	MOVW R22,R30
	MOVW R30,R0
__GLOBAL_INI_LOOP:
	LPM  R0,Z+
	ST   X+,R0
	SBIW R24,1
	BRNE __GLOBAL_INI_LOOP
	MOVW R30,R22
	RJMP __GLOBAL_INI_NEXT
__GLOBAL_INI_END:

;HARDWARE STACK POINTER INITIALIZATION
	LDI  R30,LOW(__SRAM_END-__HEAP_SIZE)
	OUT  SPL,R30
	LDI  R30,HIGH(__SRAM_END-__HEAP_SIZE)
	OUT  SPH,R30

;DATA STACK POINTER INITIALIZATION
	LDI  R28,LOW(__SRAM_START+__DSTACK_SIZE)
	LDI  R29,HIGH(__SRAM_START+__DSTACK_SIZE)

	JMP  _main

	.ESEG
	.ORG 0

	.DSEG
	.ORG 0x500

	.CSEG
;/*******************************************************
;This program was created by the
;CodeWizardAVR V3.12 Advanced
;Automatic Program Generator
;© Copyright 1998-2014 Pavel Haiduc, HP InfoTech s.r.l.
;http://www.hpinfotech.com
;
;Project :
;Version :
;Date    : 7/6/2020
;Author  :
;Company :
;Comments:
;
;
;Chip type               : ATmega64
;Program type            : Application
;AVR Core Clock frequency: 16.000000 MHz
;Memory model            : Small
;External RAM size       : 0
;Data Stack size         : 1024
;*******************************************************/
;
;#include <mega64.h>
	#ifndef __SLEEP_DEFINED__
	#define __SLEEP_DEFINED__
	.EQU __se_bit=0x20
	.EQU __sm_mask=0x1C
	.EQU __sm_powerdown=0x10
	.EQU __sm_powersave=0x18
	.EQU __sm_standby=0x14
	.EQU __sm_ext_standby=0x1C
	.EQU __sm_adc_noise_red=0x08
	.SET power_ctrl_reg=mcucr
	#endif
;#include <stdlib.h>
;#include <delay.h>
;#include <stdio.h>
;
;// Alphanumeric LCD functions
;#include <alcd.h>
;
;
;// Declare your global variables here
;unsigned char digit[] =
;{
;   0xfe,  //0
;   0x4f,  //1
;   0x12,  //2
;   0x30,  //3
;   0x68,  //4
;   0x24,  //5
;   0x04,  //6
;   0x71,  //7
;   0x00,  //8
;   0x20   //9
;};

	.DSEG
;
;int red_timer = 5;
;int green_timer = 5;
;int i ,input;
;int delay_time = 100;
;char str[20];
;
;void green(){
; 0000 0036 void green(){

	.CSEG
_green:
; .FSTART _green
; 0000 0037      PORTB.2 = 1;
	SBI  0x18,2
; 0000 0038      for (i= green_timer ; i>0 ;i--){
	MOVW R8,R6
_0x7:
	CLR  R0
	CP   R0,R8
	CPC  R0,R9
	BRGE _0x8
; 0000 0039         PORTA = digit[i];
	CALL SUBOPT_0x0
; 0000 003A         delay_ms(delay_time);
; 0000 003B      }
	MOVW R30,R8
	SBIW R30,1
	MOVW R8,R30
	RJMP _0x7
_0x8:
; 0000 003C      PORTB.2 = 0;
	CBI  0x18,2
; 0000 003D }
	RET
; .FEND
;void red(){
; 0000 003E void red(){
_red:
; .FSTART _red
; 0000 003F     PORTB.0 = 1;
	SBI  0x18,0
; 0000 0040     for (i= red_timer; i>0 ;i--){
	MOVW R8,R4
_0xE:
	CLR  R0
	CP   R0,R8
	CPC  R0,R9
	BRGE _0xF
; 0000 0041         PORTA = digit[i];
	CALL SUBOPT_0x0
; 0000 0042         delay_ms(delay_time);
; 0000 0043     }
	MOVW R30,R8
	SBIW R30,1
	MOVW R8,R30
	RJMP _0xE
_0xF:
; 0000 0044     PORTB.0=0;
	CBI  0x18,0
; 0000 0045 }
	RET
; .FEND
;
;void yellow(){
; 0000 0047 void yellow(){
_yellow:
; .FSTART _yellow
; 0000 0048     PORTB.1 = 1;
	SBI  0x18,1
; 0000 0049     PORTA = digit[0];
	LDS  R30,_digit
	OUT  0x1B,R30
; 0000 004A     delay_ms(delay_time);
	MOVW R26,R12
	CALL _delay_ms
; 0000 004B     PORTB.1 = 0;
	CBI  0x18,1
; 0000 004C }
	RET
; .FEND
;
;void set_lcd(){
; 0000 004E void set_lcd(){
_set_lcd:
; .FSTART _set_lcd
; 0000 004F     lcd_clear();
	CALL _lcd_clear
; 0000 0050     lcd_gotoxy(4 , 0); // start writing in 4th column and 2th row
	LDI  R30,LOW(4)
	CALL SUBOPT_0x1
; 0000 0051     lcd_putsf("Control Box");
	__POINTW2FN _0x0,0
	CALL SUBOPT_0x2
; 0000 0052     lcd_gotoxy(0 , 2);
	LDI  R26,LOW(2)
	CALL _lcd_gotoxy
; 0000 0053     lcd_putsf("set              set");
	__POINTW2FN _0x0,12
	CALL SUBOPT_0x2
; 0000 0054     lcd_gotoxy(0 , 3);
	LDI  R26,LOW(3)
	CALL _lcd_gotoxy
; 0000 0055     lcd_putsf("green            red");
	__POINTW2FN _0x0,33
	CALL _lcd_putsf
; 0000 0056 }
	RET
; .FEND
;
;int pressed_key()
; 0000 0059 {
_pressed_key:
; .FSTART _pressed_key
; 0000 005A     PORTD.2 = 0;PORTD.3 = 1;PORTD.4 = 1;
	CBI  0x12,2
	SBI  0x12,3
	SBI  0x12,4
; 0000 005B     if(!PIND.5) return 1;
	SBIC 0x10,5
	RJMP _0x1C
	LDI  R30,LOW(1)
	LDI  R31,HIGH(1)
	RET
; 0000 005C     if(!PIND.6) return 4;
_0x1C:
	SBIC 0x10,6
	RJMP _0x1D
	LDI  R30,LOW(4)
	LDI  R31,HIGH(4)
	RET
; 0000 005D     if(!PIND.7) return 7;
_0x1D:
	SBIC 0x10,7
	RJMP _0x1E
	LDI  R30,LOW(7)
	LDI  R31,HIGH(7)
	RET
; 0000 005E 
; 0000 005F     PORTD.2=1; PORTD.3=0; PORTD.4=1;
_0x1E:
	SBI  0x12,2
	CBI  0x12,3
	SBI  0x12,4
; 0000 0060     if(!PIND.5) return 2;
	SBIC 0x10,5
	RJMP _0x25
	LDI  R30,LOW(2)
	LDI  R31,HIGH(2)
	RET
; 0000 0061     if(!PIND.6) return 5;
_0x25:
	SBIC 0x10,6
	RJMP _0x26
	LDI  R30,LOW(5)
	LDI  R31,HIGH(5)
	RET
; 0000 0062     if(!PIND.7) return 8;
_0x26:
	SBIC 0x10,7
	RJMP _0x27
	LDI  R30,LOW(8)
	LDI  R31,HIGH(8)
	RET
; 0000 0063 
; 0000 0064     PORTD.2=1; PORTD.3=1; PORTD.4=0;
_0x27:
	SBI  0x12,2
	SBI  0x12,3
	CBI  0x12,4
; 0000 0065     if(!PIND.5) return 3;
	SBIC 0x10,5
	RJMP _0x2E
	LDI  R30,LOW(3)
	LDI  R31,HIGH(3)
	RET
; 0000 0066     if(!PIND.6) return 6;
_0x2E:
	SBIC 0x10,6
	RJMP _0x2F
	LDI  R30,LOW(6)
	LDI  R31,HIGH(6)
	RET
; 0000 0067     if(!PIND.7) return 9;
_0x2F:
	SBIC 0x10,7
	RJMP _0x30
	LDI  R30,LOW(9)
	LDI  R31,HIGH(9)
	RET
; 0000 0068 
; 0000 0069     return -1; //nothing has pressed
_0x30:
	LDI  R30,LOW(65535)
	LDI  R31,HIGH(65535)
	RET
; 0000 006A }
; .FEND
;
;// External Interrupt 0 service routine
;interrupt [EXT_INT0] void ext_int0_isr(void) // set red timer
; 0000 006E {
_ext_int0_isr:
; .FSTART _ext_int0_isr
	CALL SUBOPT_0x3
; 0000 006F     delay_ms(20);
; 0000 0070     lcd_clear();
; 0000 0071     lcd_gotoxy(0 , 0);
; 0000 0072     lcd_putsf("Enter a number(1-9)");
	__POINTW2FN _0x0,54
	CALL SUBOPT_0x2
; 0000 0073     lcd_gotoxy(0 , 1);
	LDI  R26,LOW(1)
	CALL _lcd_gotoxy
; 0000 0074     lcd_putsf("for red timer");
	__POINTW2FN _0x0,74
	CALL _lcd_putsf
; 0000 0075     do{
_0x32:
; 0000 0076         input = pressed_key();
	CALL SUBOPT_0x4
; 0000 0077         if(input != -1){
	BREQ _0x34
; 0000 0078             lcd_clear();
	CALL _lcd_clear
; 0000 0079         }
; 0000 007A     }while(input == -1);
_0x34:
	LDI  R30,LOW(65535)
	LDI  R31,HIGH(65535)
	CP   R30,R10
	CPC  R31,R11
	BREQ _0x32
; 0000 007B 
; 0000 007C     red_timer = input;
	MOVW R4,R10
; 0000 007D     lcd_gotoxy(0 ,0);
	LDI  R30,LOW(0)
	CALL SUBOPT_0x1
; 0000 007E     lcd_puts("red timer is set");
	__POINTW2MN _0x35,0
	RJMP _0x3F
; 0000 007F     lcd_gotoxy(0 , 1);
; 0000 0080     sprintf(str , "for %us" , input) ;
; 0000 0081     lcd_puts(str);
; 0000 0082     delay_ms(delay_time);
; 0000 0083     set_lcd();
; 0000 0084 }
; .FEND

	.DSEG
_0x35:
	.BYTE 0x11
;
;// External Interrupt 1 service routine
;interrupt [EXT_INT1] void ext_int1_isr(void)  //set green timer
; 0000 0088 {

	.CSEG
_ext_int1_isr:
; .FSTART _ext_int1_isr
	CALL SUBOPT_0x3
; 0000 0089     delay_ms(20);
; 0000 008A     lcd_clear();
; 0000 008B     lcd_gotoxy(0 , 0);
; 0000 008C     lcd_putsf("Enter a number(1-9)");
	__POINTW2FN _0x0,54
	CALL SUBOPT_0x2
; 0000 008D     lcd_gotoxy(0 , 1);
	LDI  R26,LOW(1)
	CALL _lcd_gotoxy
; 0000 008E     lcd_putsf("for green timer");
	__POINTW2FN _0x0,113
	CALL _lcd_putsf
; 0000 008F     do{
_0x37:
; 0000 0090         input = pressed_key();
	CALL SUBOPT_0x4
; 0000 0091         if(input != -1){
	BREQ _0x39
; 0000 0092             lcd_clear();
	CALL _lcd_clear
; 0000 0093         }
; 0000 0094     }while(input == -1);
_0x39:
	LDI  R30,LOW(65535)
	LDI  R31,HIGH(65535)
	CP   R30,R10
	CPC  R31,R11
	BREQ _0x37
; 0000 0095 
; 0000 0096     green_timer = input;
	MOVW R6,R10
; 0000 0097     lcd_gotoxy(0 ,0);
	LDI  R30,LOW(0)
	CALL SUBOPT_0x1
; 0000 0098     lcd_puts("green timer is set");
	__POINTW2MN _0x3A,0
_0x3F:
	CALL _lcd_puts
; 0000 0099     lcd_gotoxy(0 , 1);
	LDI  R30,LOW(0)
	ST   -Y,R30
	LDI  R26,LOW(1)
	CALL _lcd_gotoxy
; 0000 009A     sprintf(str , "for %us" , input) ;
	LDI  R30,LOW(_str)
	LDI  R31,HIGH(_str)
	ST   -Y,R31
	ST   -Y,R30
	__POINTW1FN _0x0,105
	ST   -Y,R31
	ST   -Y,R30
	MOVW R30,R10
	CALL __CWD1
	CALL __PUTPARD1
	LDI  R24,4
	CALL _sprintf
	ADIW R28,8
; 0000 009B     lcd_puts(str);
	LDI  R26,LOW(_str)
	LDI  R27,HIGH(_str)
	CALL _lcd_puts
; 0000 009C     delay_ms(delay_time);
	MOVW R26,R12
	CALL _delay_ms
; 0000 009D     set_lcd();
	RCALL _set_lcd
; 0000 009E }
	LD   R30,Y+
	OUT  SREG,R30
	LD   R31,Y+
	LD   R30,Y+
	LD   R27,Y+
	LD   R26,Y+
	LD   R25,Y+
	LD   R24,Y+
	LD   R23,Y+
	LD   R22,Y+
	LD   R15,Y+
	LD   R1,Y+
	LD   R0,Y+
	RETI
; .FEND

	.DSEG
_0x3A:
	.BYTE 0x13
;
;void main(void)
; 0000 00A1 {

	.CSEG
_main:
; .FSTART _main
; 0000 00A2 
; 0000 00A3 DDRB = 0xFF;
	LDI  R30,LOW(255)
	OUT  0x17,R30
; 0000 00A4 PORTB = 0x00;
	LDI  R30,LOW(0)
	OUT  0x18,R30
; 0000 00A5 
; 0000 00A6 DDRE = 0xFF;
	LDI  R30,LOW(255)
	OUT  0x2,R30
; 0000 00A7 PORTE = 0xFF;
	OUT  0x3,R30
; 0000 00A8 
; 0000 00A9 DDRA = 0xFF;
	OUT  0x1A,R30
; 0000 00AA PORTA = 0xFF;
	OUT  0x1B,R30
; 0000 00AB 
; 0000 00AC DDRD = 0x1C;
	LDI  R30,LOW(28)
	OUT  0x11,R30
; 0000 00AD PORTD = 0xE3;
	LDI  R30,LOW(227)
	OUT  0x12,R30
; 0000 00AE 
; 0000 00AF 
; 0000 00B0 // External Interrupt(s) initialization
; 0000 00B1 // INT0: On
; 0000 00B2 // INT0 Mode: Low level
; 0000 00B3 // INT1: On
; 0000 00B4 // INT1 Mode: Low level
; 0000 00B5 // INT2: Off
; 0000 00B6 // INT3: Off
; 0000 00B7 // INT4: Off
; 0000 00B8 // INT5: Off
; 0000 00B9 // INT6: Off
; 0000 00BA // INT7: Off
; 0000 00BB 
; 0000 00BC EICRA=(0<<ISC31) | (0<<ISC30) | (0<<ISC21) | (0<<ISC20) | (0<<ISC11) | (0<<ISC10) | (0<<ISC01) | (0<<ISC00);
	LDI  R30,LOW(0)
	STS  106,R30
; 0000 00BD EICRB=(0<<ISC71) | (0<<ISC70) | (0<<ISC61) | (0<<ISC60) | (0<<ISC51) | (0<<ISC50) | (0<<ISC41) | (0<<ISC40);
	OUT  0x3A,R30
; 0000 00BE EIMSK=(0<<INT7) | (0<<INT6) | (0<<INT5) | (0<<INT4) | (0<<INT3) | (0<<INT2) | (1<<INT1) | (1<<INT0);
	LDI  R30,LOW(3)
	OUT  0x39,R30
; 0000 00BF EIFR=(0<<INTF7) | (0<<INTF6) | (0<<INTF5) | (0<<INTF4) | (0<<INTF3) | (0<<INTF2) | (1<<INTF1) | (1<<INTF0);
	OUT  0x38,R30
; 0000 00C0 
; 0000 00C1 // Alphanumeric LCD initialization
; 0000 00C2 // Connections are specified in the
; 0000 00C3 // Project|Configure|C Compiler|Libraries|Alphanumeric LCD menu:
; 0000 00C4 // RS - PORTE Bit 0
; 0000 00C5 // RD - PORTE Bit 1
; 0000 00C6 // EN - PORTE Bit 2
; 0000 00C7 // D4 - PORTE Bit 4
; 0000 00C8 // D5 - PORTE Bit 5
; 0000 00C9 // D6 - PORTE Bit 6
; 0000 00CA // D7 - PORTE Bit 7
; 0000 00CB // Characters/line: 20
; 0000 00CC lcd_init(20);
	LDI  R26,LOW(20)
	CALL _lcd_init
; 0000 00CD 
; 0000 00CE // Global enable interrupts
; 0000 00CF #asm("sei")
	sei
; 0000 00D0 
; 0000 00D1 set_lcd();
	RCALL _set_lcd
; 0000 00D2 
; 0000 00D3 while (1)
_0x3B:
; 0000 00D4       {
; 0000 00D5             green();
	RCALL _green
; 0000 00D6             yellow();
	RCALL _yellow
; 0000 00D7             red();
	RCALL _red
; 0000 00D8             yellow();
	RCALL _yellow
; 0000 00D9 
; 0000 00DA       }
	RJMP _0x3B
; 0000 00DB }
_0x3E:
	RJMP _0x3E
; .FEND

	.CSEG

	.DSEG

	.CSEG
	#ifndef __SLEEP_DEFINED__
	#define __SLEEP_DEFINED__
	.EQU __se_bit=0x20
	.EQU __sm_mask=0x1C
	.EQU __sm_powerdown=0x10
	.EQU __sm_powersave=0x18
	.EQU __sm_standby=0x14
	.EQU __sm_ext_standby=0x1C
	.EQU __sm_adc_noise_red=0x08
	.SET power_ctrl_reg=mcucr
	#endif

	.CSEG
_put_buff_G101:
; .FSTART _put_buff_G101
	ST   -Y,R27
	ST   -Y,R26
	ST   -Y,R17
	ST   -Y,R16
	LDD  R26,Y+2
	LDD  R27,Y+2+1
	ADIW R26,2
	CALL __GETW1P
	SBIW R30,0
	BREQ _0x2020010
	LDD  R26,Y+2
	LDD  R27,Y+2+1
	ADIW R26,4
	CALL __GETW1P
	MOVW R16,R30
	SBIW R30,0
	BREQ _0x2020012
	__CPWRN 16,17,2
	BRLO _0x2020013
	MOVW R30,R16
	SBIW R30,1
	MOVW R16,R30
	__PUTW1SNS 2,4
_0x2020012:
	LDD  R26,Y+2
	LDD  R27,Y+2+1
	ADIW R26,2
	LD   R30,X+
	LD   R31,X+
	ADIW R30,1
	ST   -X,R31
	ST   -X,R30
	SBIW R30,1
	LDD  R26,Y+4
	STD  Z+0,R26
_0x2020013:
	LDD  R26,Y+2
	LDD  R27,Y+2+1
	CALL __GETW1P
	TST  R31
	BRMI _0x2020014
	LD   R30,X+
	LD   R31,X+
	ADIW R30,1
	ST   -X,R31
	ST   -X,R30
_0x2020014:
	RJMP _0x2020015
_0x2020010:
	LDD  R26,Y+2
	LDD  R27,Y+2+1
	LDI  R30,LOW(65535)
	LDI  R31,HIGH(65535)
	ST   X+,R30
	ST   X,R31
_0x2020015:
	LDD  R17,Y+1
	LDD  R16,Y+0
	ADIW R28,5
	RET
; .FEND
__print_G101:
; .FSTART __print_G101
	ST   -Y,R27
	ST   -Y,R26
	SBIW R28,6
	CALL __SAVELOCR6
	LDI  R17,0
	LDD  R26,Y+12
	LDD  R27,Y+12+1
	LDI  R30,LOW(0)
	LDI  R31,HIGH(0)
	ST   X+,R30
	ST   X,R31
_0x2020016:
	LDD  R30,Y+18
	LDD  R31,Y+18+1
	ADIW R30,1
	STD  Y+18,R30
	STD  Y+18+1,R31
	SBIW R30,1
	LPM  R30,Z
	MOV  R18,R30
	CPI  R30,0
	BRNE PC+2
	RJMP _0x2020018
	MOV  R30,R17
	CPI  R30,0
	BRNE _0x202001C
	CPI  R18,37
	BRNE _0x202001D
	LDI  R17,LOW(1)
	RJMP _0x202001E
_0x202001D:
	CALL SUBOPT_0x5
_0x202001E:
	RJMP _0x202001B
_0x202001C:
	CPI  R30,LOW(0x1)
	BRNE _0x202001F
	CPI  R18,37
	BRNE _0x2020020
	CALL SUBOPT_0x5
	RJMP _0x20200CC
_0x2020020:
	LDI  R17,LOW(2)
	LDI  R20,LOW(0)
	LDI  R16,LOW(0)
	CPI  R18,45
	BRNE _0x2020021
	LDI  R16,LOW(1)
	RJMP _0x202001B
_0x2020021:
	CPI  R18,43
	BRNE _0x2020022
	LDI  R20,LOW(43)
	RJMP _0x202001B
_0x2020022:
	CPI  R18,32
	BRNE _0x2020023
	LDI  R20,LOW(32)
	RJMP _0x202001B
_0x2020023:
	RJMP _0x2020024
_0x202001F:
	CPI  R30,LOW(0x2)
	BRNE _0x2020025
_0x2020024:
	LDI  R21,LOW(0)
	LDI  R17,LOW(3)
	CPI  R18,48
	BRNE _0x2020026
	ORI  R16,LOW(128)
	RJMP _0x202001B
_0x2020026:
	RJMP _0x2020027
_0x2020025:
	CPI  R30,LOW(0x3)
	BREQ PC+2
	RJMP _0x202001B
_0x2020027:
	CPI  R18,48
	BRLO _0x202002A
	CPI  R18,58
	BRLO _0x202002B
_0x202002A:
	RJMP _0x2020029
_0x202002B:
	LDI  R26,LOW(10)
	MUL  R21,R26
	MOV  R21,R0
	MOV  R30,R18
	SUBI R30,LOW(48)
	ADD  R21,R30
	RJMP _0x202001B
_0x2020029:
	MOV  R30,R18
	CPI  R30,LOW(0x63)
	BRNE _0x202002F
	CALL SUBOPT_0x6
	LDD  R30,Y+16
	LDD  R31,Y+16+1
	LDD  R26,Z+4
	ST   -Y,R26
	CALL SUBOPT_0x7
	RJMP _0x2020030
_0x202002F:
	CPI  R30,LOW(0x73)
	BRNE _0x2020032
	CALL SUBOPT_0x6
	CALL SUBOPT_0x8
	CALL _strlen
	MOV  R17,R30
	RJMP _0x2020033
_0x2020032:
	CPI  R30,LOW(0x70)
	BRNE _0x2020035
	CALL SUBOPT_0x6
	CALL SUBOPT_0x8
	CALL _strlenf
	MOV  R17,R30
	ORI  R16,LOW(8)
_0x2020033:
	ORI  R16,LOW(2)
	ANDI R16,LOW(127)
	LDI  R19,LOW(0)
	RJMP _0x2020036
_0x2020035:
	CPI  R30,LOW(0x64)
	BREQ _0x2020039
	CPI  R30,LOW(0x69)
	BRNE _0x202003A
_0x2020039:
	ORI  R16,LOW(4)
	RJMP _0x202003B
_0x202003A:
	CPI  R30,LOW(0x75)
	BRNE _0x202003C
_0x202003B:
	LDI  R30,LOW(_tbl10_G101*2)
	LDI  R31,HIGH(_tbl10_G101*2)
	STD  Y+6,R30
	STD  Y+6+1,R31
	LDI  R17,LOW(5)
	RJMP _0x202003D
_0x202003C:
	CPI  R30,LOW(0x58)
	BRNE _0x202003F
	ORI  R16,LOW(8)
	RJMP _0x2020040
_0x202003F:
	CPI  R30,LOW(0x78)
	BREQ PC+2
	RJMP _0x2020071
_0x2020040:
	LDI  R30,LOW(_tbl16_G101*2)
	LDI  R31,HIGH(_tbl16_G101*2)
	STD  Y+6,R30
	STD  Y+6+1,R31
	LDI  R17,LOW(4)
_0x202003D:
	SBRS R16,2
	RJMP _0x2020042
	CALL SUBOPT_0x6
	CALL SUBOPT_0x9
	LDD  R26,Y+11
	TST  R26
	BRPL _0x2020043
	LDD  R30,Y+10
	LDD  R31,Y+10+1
	CALL __ANEGW1
	STD  Y+10,R30
	STD  Y+10+1,R31
	LDI  R20,LOW(45)
_0x2020043:
	CPI  R20,0
	BREQ _0x2020044
	SUBI R17,-LOW(1)
	RJMP _0x2020045
_0x2020044:
	ANDI R16,LOW(251)
_0x2020045:
	RJMP _0x2020046
_0x2020042:
	CALL SUBOPT_0x6
	CALL SUBOPT_0x9
_0x2020046:
_0x2020036:
	SBRC R16,0
	RJMP _0x2020047
_0x2020048:
	CP   R17,R21
	BRSH _0x202004A
	SBRS R16,7
	RJMP _0x202004B
	SBRS R16,2
	RJMP _0x202004C
	ANDI R16,LOW(251)
	MOV  R18,R20
	SUBI R17,LOW(1)
	RJMP _0x202004D
_0x202004C:
	LDI  R18,LOW(48)
_0x202004D:
	RJMP _0x202004E
_0x202004B:
	LDI  R18,LOW(32)
_0x202004E:
	CALL SUBOPT_0x5
	SUBI R21,LOW(1)
	RJMP _0x2020048
_0x202004A:
_0x2020047:
	MOV  R19,R17
	SBRS R16,1
	RJMP _0x202004F
_0x2020050:
	CPI  R19,0
	BREQ _0x2020052
	SBRS R16,3
	RJMP _0x2020053
	LDD  R30,Y+6
	LDD  R31,Y+6+1
	LPM  R18,Z+
	STD  Y+6,R30
	STD  Y+6+1,R31
	RJMP _0x2020054
_0x2020053:
	LDD  R26,Y+6
	LDD  R27,Y+6+1
	LD   R18,X+
	STD  Y+6,R26
	STD  Y+6+1,R27
_0x2020054:
	CALL SUBOPT_0x5
	CPI  R21,0
	BREQ _0x2020055
	SUBI R21,LOW(1)
_0x2020055:
	SUBI R19,LOW(1)
	RJMP _0x2020050
_0x2020052:
	RJMP _0x2020056
_0x202004F:
_0x2020058:
	LDI  R18,LOW(48)
	LDD  R30,Y+6
	LDD  R31,Y+6+1
	CALL __GETW1PF
	STD  Y+8,R30
	STD  Y+8+1,R31
	LDD  R30,Y+6
	LDD  R31,Y+6+1
	ADIW R30,2
	STD  Y+6,R30
	STD  Y+6+1,R31
_0x202005A:
	LDD  R30,Y+8
	LDD  R31,Y+8+1
	LDD  R26,Y+10
	LDD  R27,Y+10+1
	CP   R26,R30
	CPC  R27,R31
	BRLO _0x202005C
	SUBI R18,-LOW(1)
	LDD  R26,Y+8
	LDD  R27,Y+8+1
	LDD  R30,Y+10
	LDD  R31,Y+10+1
	SUB  R30,R26
	SBC  R31,R27
	STD  Y+10,R30
	STD  Y+10+1,R31
	RJMP _0x202005A
_0x202005C:
	CPI  R18,58
	BRLO _0x202005D
	SBRS R16,3
	RJMP _0x202005E
	SUBI R18,-LOW(7)
	RJMP _0x202005F
_0x202005E:
	SUBI R18,-LOW(39)
_0x202005F:
_0x202005D:
	SBRC R16,4
	RJMP _0x2020061
	CPI  R18,49
	BRSH _0x2020063
	LDD  R26,Y+8
	LDD  R27,Y+8+1
	SBIW R26,1
	BRNE _0x2020062
_0x2020063:
	RJMP _0x20200CD
_0x2020062:
	CP   R21,R19
	BRLO _0x2020067
	SBRS R16,0
	RJMP _0x2020068
_0x2020067:
	RJMP _0x2020066
_0x2020068:
	LDI  R18,LOW(32)
	SBRS R16,7
	RJMP _0x2020069
	LDI  R18,LOW(48)
_0x20200CD:
	ORI  R16,LOW(16)
	SBRS R16,2
	RJMP _0x202006A
	ANDI R16,LOW(251)
	ST   -Y,R20
	CALL SUBOPT_0x7
	CPI  R21,0
	BREQ _0x202006B
	SUBI R21,LOW(1)
_0x202006B:
_0x202006A:
_0x2020069:
_0x2020061:
	CALL SUBOPT_0x5
	CPI  R21,0
	BREQ _0x202006C
	SUBI R21,LOW(1)
_0x202006C:
_0x2020066:
	SUBI R19,LOW(1)
	LDD  R26,Y+8
	LDD  R27,Y+8+1
	SBIW R26,2
	BRLO _0x2020059
	RJMP _0x2020058
_0x2020059:
_0x2020056:
	SBRS R16,0
	RJMP _0x202006D
_0x202006E:
	CPI  R21,0
	BREQ _0x2020070
	SUBI R21,LOW(1)
	LDI  R30,LOW(32)
	ST   -Y,R30
	CALL SUBOPT_0x7
	RJMP _0x202006E
_0x2020070:
_0x202006D:
_0x2020071:
_0x2020030:
_0x20200CC:
	LDI  R17,LOW(0)
_0x202001B:
	RJMP _0x2020016
_0x2020018:
	LDD  R26,Y+12
	LDD  R27,Y+12+1
	CALL __GETW1P
	CALL __LOADLOCR6
	ADIW R28,20
	RET
; .FEND
_sprintf:
; .FSTART _sprintf
	PUSH R15
	MOV  R15,R24
	SBIW R28,6
	CALL __SAVELOCR4
	CALL SUBOPT_0xA
	SBIW R30,0
	BRNE _0x2020072
	LDI  R30,LOW(65535)
	LDI  R31,HIGH(65535)
	RJMP _0x20C0003
_0x2020072:
	MOVW R26,R28
	ADIW R26,6
	CALL __ADDW2R15
	MOVW R16,R26
	CALL SUBOPT_0xA
	STD  Y+6,R30
	STD  Y+6+1,R31
	LDI  R30,LOW(0)
	STD  Y+8,R30
	STD  Y+8+1,R30
	MOVW R26,R28
	ADIW R26,10
	CALL __ADDW2R15
	CALL __GETW1P
	ST   -Y,R31
	ST   -Y,R30
	ST   -Y,R17
	ST   -Y,R16
	LDI  R30,LOW(_put_buff_G101)
	LDI  R31,HIGH(_put_buff_G101)
	ST   -Y,R31
	ST   -Y,R30
	MOVW R26,R28
	ADIW R26,10
	RCALL __print_G101
	MOVW R18,R30
	LDD  R26,Y+6
	LDD  R27,Y+6+1
	LDI  R30,LOW(0)
	ST   X,R30
	MOVW R30,R18
_0x20C0003:
	CALL __LOADLOCR4
	ADIW R28,10
	POP  R15
	RET
; .FEND
	#ifndef __SLEEP_DEFINED__
	#define __SLEEP_DEFINED__
	.EQU __se_bit=0x20
	.EQU __sm_mask=0x1C
	.EQU __sm_powerdown=0x10
	.EQU __sm_powersave=0x18
	.EQU __sm_standby=0x14
	.EQU __sm_ext_standby=0x1C
	.EQU __sm_adc_noise_red=0x08
	.SET power_ctrl_reg=mcucr
	#endif

	.DSEG

	.CSEG
__lcd_write_nibble_G102:
; .FSTART __lcd_write_nibble_G102
	ST   -Y,R26
	IN   R30,0x3
	ANDI R30,LOW(0xF)
	MOV  R26,R30
	LD   R30,Y
	ANDI R30,LOW(0xF0)
	OR   R30,R26
	OUT  0x3,R30
	__DELAY_USB 27
	SBI  0x3,2
	__DELAY_USB 27
	CBI  0x3,2
	__DELAY_USB 27
	RJMP _0x20C0001
; .FEND
__lcd_write_data:
; .FSTART __lcd_write_data
	ST   -Y,R26
	LD   R26,Y
	RCALL __lcd_write_nibble_G102
    ld    r30,y
    swap  r30
    st    y,r30
	LD   R26,Y
	RCALL __lcd_write_nibble_G102
	__DELAY_USW 200
	RJMP _0x20C0001
; .FEND
_lcd_gotoxy:
; .FSTART _lcd_gotoxy
	ST   -Y,R26
	LD   R30,Y
	LDI  R31,0
	SUBI R30,LOW(-__base_y_G102)
	SBCI R31,HIGH(-__base_y_G102)
	LD   R30,Z
	LDD  R26,Y+1
	ADD  R26,R30
	RCALL __lcd_write_data
	LDD  R30,Y+1
	STS  __lcd_x,R30
	LD   R30,Y
	STS  __lcd_y,R30
	ADIW R28,2
	RET
; .FEND
_lcd_clear:
; .FSTART _lcd_clear
	LDI  R26,LOW(2)
	CALL SUBOPT_0xB
	LDI  R26,LOW(12)
	RCALL __lcd_write_data
	LDI  R26,LOW(1)
	CALL SUBOPT_0xB
	LDI  R30,LOW(0)
	STS  __lcd_y,R30
	STS  __lcd_x,R30
	RET
; .FEND
_lcd_putchar:
; .FSTART _lcd_putchar
	ST   -Y,R26
	LD   R26,Y
	CPI  R26,LOW(0xA)
	BREQ _0x2040005
	LDS  R30,__lcd_maxx
	LDS  R26,__lcd_x
	CP   R26,R30
	BRLO _0x2040004
_0x2040005:
	LDI  R30,LOW(0)
	ST   -Y,R30
	LDS  R26,__lcd_y
	SUBI R26,-LOW(1)
	STS  __lcd_y,R26
	RCALL _lcd_gotoxy
	LD   R26,Y
	CPI  R26,LOW(0xA)
	BRNE _0x2040007
	RJMP _0x20C0001
_0x2040007:
_0x2040004:
	LDS  R30,__lcd_x
	SUBI R30,-LOW(1)
	STS  __lcd_x,R30
	SBI  0x3,0
	LD   R26,Y
	RCALL __lcd_write_data
	CBI  0x3,0
	RJMP _0x20C0001
; .FEND
_lcd_puts:
; .FSTART _lcd_puts
	ST   -Y,R27
	ST   -Y,R26
	ST   -Y,R17
_0x2040008:
	LDD  R26,Y+1
	LDD  R27,Y+1+1
	LD   R30,X+
	STD  Y+1,R26
	STD  Y+1+1,R27
	MOV  R17,R30
	CPI  R30,0
	BREQ _0x204000A
	MOV  R26,R17
	RCALL _lcd_putchar
	RJMP _0x2040008
_0x204000A:
	RJMP _0x20C0002
; .FEND
_lcd_putsf:
; .FSTART _lcd_putsf
	ST   -Y,R27
	ST   -Y,R26
	ST   -Y,R17
_0x204000B:
	LDD  R30,Y+1
	LDD  R31,Y+1+1
	ADIW R30,1
	STD  Y+1,R30
	STD  Y+1+1,R31
	SBIW R30,1
	LPM  R30,Z
	MOV  R17,R30
	CPI  R30,0
	BREQ _0x204000D
	MOV  R26,R17
	RCALL _lcd_putchar
	RJMP _0x204000B
_0x204000D:
_0x20C0002:
	LDD  R17,Y+0
	ADIW R28,3
	RET
; .FEND
_lcd_init:
; .FSTART _lcd_init
	ST   -Y,R26
	IN   R30,0x2
	ORI  R30,LOW(0xF0)
	OUT  0x2,R30
	SBI  0x2,2
	SBI  0x2,0
	SBI  0x2,1
	CBI  0x3,2
	CBI  0x3,0
	CBI  0x3,1
	LD   R30,Y
	STS  __lcd_maxx,R30
	SUBI R30,-LOW(128)
	__PUTB1MN __base_y_G102,2
	LD   R30,Y
	SUBI R30,-LOW(192)
	__PUTB1MN __base_y_G102,3
	LDI  R26,LOW(20)
	LDI  R27,0
	CALL _delay_ms
	CALL SUBOPT_0xC
	CALL SUBOPT_0xC
	CALL SUBOPT_0xC
	LDI  R26,LOW(32)
	RCALL __lcd_write_nibble_G102
	__DELAY_USW 400
	LDI  R26,LOW(40)
	RCALL __lcd_write_data
	LDI  R26,LOW(4)
	RCALL __lcd_write_data
	LDI  R26,LOW(133)
	RCALL __lcd_write_data
	LDI  R26,LOW(6)
	RCALL __lcd_write_data
	RCALL _lcd_clear
_0x20C0001:
	ADIW R28,1
	RET
; .FEND

	.CSEG

	.CSEG

	.CSEG
_strlen:
; .FSTART _strlen
	ST   -Y,R27
	ST   -Y,R26
    ld   r26,y+
    ld   r27,y+
    clr  r30
    clr  r31
strlen0:
    ld   r22,x+
    tst  r22
    breq strlen1
    adiw r30,1
    rjmp strlen0
strlen1:
    ret
; .FEND
_strlenf:
; .FSTART _strlenf
	ST   -Y,R27
	ST   -Y,R26
    clr  r26
    clr  r27
    ld   r30,y+
    ld   r31,y+
strlenf0:
	lpm  r0,z+
    tst  r0
    breq strlenf1
    adiw r26,1
    rjmp strlenf0
strlenf1:
    movw r30,r26
    ret
; .FEND

	.DSEG
_digit:
	.BYTE 0xA
_str:
	.BYTE 0x14
__seed_G100:
	.BYTE 0x4
__base_y_G102:
	.BYTE 0x4
__lcd_x:
	.BYTE 0x1
__lcd_y:
	.BYTE 0x1
__lcd_maxx:
	.BYTE 0x1

	.CSEG
;OPTIMIZER ADDED SUBROUTINE, CALLED 2 TIMES, CODE SIZE REDUCTION:4 WORDS
SUBOPT_0x0:
	LDI  R26,LOW(_digit)
	LDI  R27,HIGH(_digit)
	ADD  R26,R8
	ADC  R27,R9
	LD   R30,X
	OUT  0x1B,R30
	MOVW R26,R12
	JMP  _delay_ms

;OPTIMIZER ADDED SUBROUTINE, CALLED 5 TIMES, CODE SIZE REDUCTION:5 WORDS
SUBOPT_0x1:
	ST   -Y,R30
	LDI  R26,LOW(0)
	JMP  _lcd_gotoxy

;OPTIMIZER ADDED SUBROUTINE, CALLED 4 TIMES, CODE SIZE REDUCTION:3 WORDS
SUBOPT_0x2:
	CALL _lcd_putsf
	LDI  R30,LOW(0)
	ST   -Y,R30
	RET

;OPTIMIZER ADDED SUBROUTINE, CALLED 2 TIMES, CODE SIZE REDUCTION:17 WORDS
SUBOPT_0x3:
	ST   -Y,R0
	ST   -Y,R1
	ST   -Y,R15
	ST   -Y,R22
	ST   -Y,R23
	ST   -Y,R24
	ST   -Y,R25
	ST   -Y,R26
	ST   -Y,R27
	ST   -Y,R30
	ST   -Y,R31
	IN   R30,SREG
	ST   -Y,R30
	LDI  R26,LOW(20)
	LDI  R27,0
	CALL _delay_ms
	CALL _lcd_clear
	LDI  R30,LOW(0)
	RJMP SUBOPT_0x1

;OPTIMIZER ADDED SUBROUTINE, CALLED 2 TIMES, CODE SIZE REDUCTION:2 WORDS
SUBOPT_0x4:
	CALL _pressed_key
	MOVW R10,R30
	LDI  R30,LOW(65535)
	LDI  R31,HIGH(65535)
	CP   R30,R10
	CPC  R31,R11
	RET

;OPTIMIZER ADDED SUBROUTINE, CALLED 5 TIMES, CODE SIZE REDUCTION:13 WORDS
SUBOPT_0x5:
	ST   -Y,R18
	LDD  R26,Y+13
	LDD  R27,Y+13+1
	LDD  R30,Y+15
	LDD  R31,Y+15+1
	ICALL
	RET

;OPTIMIZER ADDED SUBROUTINE, CALLED 5 TIMES, CODE SIZE REDUCTION:9 WORDS
SUBOPT_0x6:
	LDD  R30,Y+16
	LDD  R31,Y+16+1
	SBIW R30,4
	STD  Y+16,R30
	STD  Y+16+1,R31
	RET

;OPTIMIZER ADDED SUBROUTINE, CALLED 3 TIMES, CODE SIZE REDUCTION:3 WORDS
SUBOPT_0x7:
	LDD  R26,Y+13
	LDD  R27,Y+13+1
	LDD  R30,Y+15
	LDD  R31,Y+15+1
	ICALL
	RET

;OPTIMIZER ADDED SUBROUTINE, CALLED 2 TIMES, CODE SIZE REDUCTION:4 WORDS
SUBOPT_0x8:
	LDD  R26,Y+16
	LDD  R27,Y+16+1
	ADIW R26,4
	CALL __GETW1P
	STD  Y+6,R30
	STD  Y+6+1,R31
	LDD  R26,Y+6
	LDD  R27,Y+6+1
	RET

;OPTIMIZER ADDED SUBROUTINE, CALLED 2 TIMES, CODE SIZE REDUCTION:2 WORDS
SUBOPT_0x9:
	LDD  R26,Y+16
	LDD  R27,Y+16+1
	ADIW R26,4
	CALL __GETW1P
	STD  Y+10,R30
	STD  Y+10+1,R31
	RET

;OPTIMIZER ADDED SUBROUTINE, CALLED 2 TIMES, CODE SIZE REDUCTION:1 WORDS
SUBOPT_0xA:
	MOVW R26,R28
	ADIW R26,12
	CALL __ADDW2R15
	CALL __GETW1P
	RET

;OPTIMIZER ADDED SUBROUTINE, CALLED 2 TIMES, CODE SIZE REDUCTION:1 WORDS
SUBOPT_0xB:
	CALL __lcd_write_data
	LDI  R26,LOW(3)
	LDI  R27,0
	JMP  _delay_ms

;OPTIMIZER ADDED SUBROUTINE, CALLED 3 TIMES, CODE SIZE REDUCTION:7 WORDS
SUBOPT_0xC:
	LDI  R26,LOW(48)
	CALL __lcd_write_nibble_G102
	__DELAY_USW 400
	RET


	.CSEG
_delay_ms:
	adiw r26,0
	breq __delay_ms1
__delay_ms0:
	__DELAY_USW 0xFA0
	wdr
	sbiw r26,1
	brne __delay_ms0
__delay_ms1:
	ret

__ADDW2R15:
	CLR  R0
	ADD  R26,R15
	ADC  R27,R0
	RET

__ANEGW1:
	NEG  R31
	NEG  R30
	SBCI R31,0
	RET

__CWD1:
	MOV  R22,R31
	ADD  R22,R22
	SBC  R22,R22
	MOV  R23,R22
	RET

__GETW1P:
	LD   R30,X+
	LD   R31,X
	SBIW R26,1
	RET

__GETW1PF:
	LPM  R0,Z+
	LPM  R31,Z
	MOV  R30,R0
	RET

__PUTPARD1:
	ST   -Y,R23
	ST   -Y,R22
	ST   -Y,R31
	ST   -Y,R30
	RET

__SAVELOCR6:
	ST   -Y,R21
__SAVELOCR5:
	ST   -Y,R20
__SAVELOCR4:
	ST   -Y,R19
__SAVELOCR3:
	ST   -Y,R18
__SAVELOCR2:
	ST   -Y,R17
	ST   -Y,R16
	RET

__LOADLOCR6:
	LDD  R21,Y+5
__LOADLOCR5:
	LDD  R20,Y+4
__LOADLOCR4:
	LDD  R19,Y+3
__LOADLOCR3:
	LDD  R18,Y+2
__LOADLOCR2:
	LDD  R17,Y+1
	LD   R16,Y
	RET

;END OF CODE MARKER
__END_OF_CODE:
